target datalayout = "e-m:e-p270:32:32-p271:32:32-p272:64:64-i64:64-i128:128-f80:128-n8:16:32:64-S128"
target triple = "x86_64-pc-linux-gnu"

%struct.nstime_t = type { i64, i32 }
%struct._packet_info = type { ptr, ptr, i32, i32, %struct.nstime_t, %struct.nstime_t, %struct.nstime_t, i8, ptr, ptr, ptr, ptr, %struct._address, %struct._address, %struct._address, %struct._address, %struct._address, %struct._address, i32, ptr, i8, [3 x i8], %struct.anon, i32, i32, i32, i32, ptr, i8, ptr, ptr, i16, i16, i32, i32, i16, i32, i32, ptr, ptr, ptr, i8, i8, i16, i16, i16, i32, i16, i16, ptr, ptr, ptr, ptr, ptr, i32, i32 }
%struct._address = type { i32, i32, ptr, ptr }
%struct.anon = type { i8, [3 x i8] }
%struct.afp_request_val = type { i8, i32, i32, %struct.nstime_t, i32 }

@hf_afp_vol_id = internal global i32 0, align 4
@hf_afp_spotlight_reply_reserved = internal global i32 0, align 4
@hf_afp_spotlight_volpath_server = internal global i32 0, align 4
@hf_afp_spotlight_returncode = internal global i32 0, align 4
@hf_afp_spotlight_volflags = internal global i32 0, align 4
@spotlight_handle = internal global ptr null, align 8

; Function Attrs: null_pointer_is_valid sspstrong uwtable
define internal i32 @dissect_reply_afp_spotlight(ptr noundef %0, ptr noundef %1, ptr noundef %2, i32 noundef %3, ptr noundef %4) #1 {
  %6 = alloca ptr, align 8
  %7 = alloca ptr, align 8
  %8 = alloca ptr, align 8
  %9 = alloca i32, align 4
  %10 = alloca ptr, align 8
  %11 = alloca i32, align 4
  %12 = alloca ptr, align 8
  store ptr %0, ptr %6, align 8
  store ptr %1, ptr %7, align 8
  store ptr %2, ptr %8, align 8
  store i32 %3, ptr %9, align 4
  store ptr %4, ptr %10, align 8
  call void @llvm.lifetime.start.p0(i64 4, ptr %11) #8
  call void @llvm.lifetime.start.p0(i64 8, ptr %12) #8
  %13 = load ptr, ptr %10, align 8
  %14 = getelementptr inbounds nuw %struct.afp_request_val, ptr %13, i32 0, i32 4
  %15 = load i32, ptr %14, align 8
  switch i32 %15, label %72 [
    i32 4, label %16
    i32 2, label %46
    i32 3, label %54
  ]

16:                                               ; preds = %5
  %17 = load ptr, ptr %8, align 8
  %18 = load i32, ptr @hf_afp_vol_id, align 4
  %19 = load ptr, ptr %6, align 8
  %20 = load i32, ptr %9, align 4
  %21 = call ptr @proto_tree_add_item(ptr noundef %17, i32 noundef %18, ptr noundef %19, i32 noundef %20, i32 noundef 4, i32 noundef 0)
  %22 = load i32, ptr %9, align 4
  %23 = add i32 %22, 4
  store i32 %23, ptr %9, align 4
  %24 = load ptr, ptr %8, align 8
  %25 = load i32, ptr @hf_afp_spotlight_reply_reserved, align 4
  %26 = load ptr, ptr %6, align 8
  %27 = load i32, ptr %9, align 4
  %28 = call ptr @proto_tree_add_item(ptr noundef %24, i32 noundef %25, ptr noundef %26, i32 noundef %27, i32 noundef 4, i32 noundef 0)
  %29 = load i32, ptr %9, align 4
  %30 = add i32 %29, 4
  store i32 %30, ptr %9, align 4
  %31 = load ptr, ptr %7, align 8
  %32 = getelementptr inbounds nuw %struct._packet_info, ptr %31, i32 0, i32 51
  %33 = load ptr, ptr %32, align 8
  %34 = load ptr, ptr %6, align 8
  %35 = load i32, ptr %9, align 4
  %36 = call ptr @tvb_get_stringz_enc(ptr noundef %33, ptr noundef %34, i32 noundef %35, ptr noundef %11, i32 noundef 2)
  %37 = load ptr, ptr %8, align 8
  %38 = load i32, ptr @hf_afp_spotlight_volpath_server, align 4
  %39 = load ptr, ptr %6, align 8
  %40 = load i32, ptr %9, align 4
  %41 = load i32, ptr %11, align 4
  %42 = call ptr @proto_tree_add_item(ptr noundef %37, i32 noundef %38, ptr noundef %39, i32 noundef %40, i32 noundef %41, i32 noundef 2)
  %43 = load i32, ptr %11, align 4
  %44 = load i32, ptr %9, align 4
  %45 = add i32 %44, %43
  store i32 %45, ptr %9, align 4
  br label %72

46:                                               ; preds = %5
  %47 = load ptr, ptr %8, align 8
  %48 = load i32, ptr @hf_afp_spotlight_volflags, align 4
  %49 = load ptr, ptr %6, align 8
  %50 = load i32, ptr %9, align 4
  %51 = call ptr @proto_tree_add_item(ptr noundef %47, i32 noundef %48, ptr noundef %49, i32 noundef %50, i32 noundef 4, i32 noundef 0)
  %52 = load i32, ptr %9, align 4
  %53 = add i32 %52, 4
  store i32 %53, ptr %9, align 4
  br label %72

54:                                               ; preds = %5
  %55 = load ptr, ptr %8, align 8
  %56 = load i32, ptr @hf_afp_spotlight_returncode, align 4
  %57 = load ptr, ptr %6, align 8
  %58 = load i32, ptr %9, align 4
  %59 = call ptr @proto_tree_add_item(ptr noundef %55, i32 noundef %56, ptr noundef %57, i32 noundef %58, i32 noundef 4, i32 noundef 0)
  %60 = load i32, ptr %9, align 4
  %61 = add i32 %60, 4
  store i32 %61, ptr %9, align 4
  %62 = load ptr, ptr %6, align 8
  %63 = load i32, ptr %9, align 4
  %64 = call ptr @tvb_new_subset_remaining(ptr noundef %62, i32 noundef %63)
  store ptr %64, ptr %12, align 8
  %65 = load ptr, ptr @spotlight_handle, align 8
  %66 = load ptr, ptr %12, align 8
  %67 = load ptr, ptr %7, align 8
  %68 = load ptr, ptr %8, align 8
  %69 = call i32 @call_dissector(ptr noundef %65, ptr noundef %66, ptr noundef %67, ptr noundef %68)
  %70 = load i32, ptr %9, align 4
  %71 = add i32 %70, %69
  store i32 %71, ptr %9, align 4
  br label %72

72:                                               ; preds = %5, %54, %46, %16
  %73 = load i32, ptr %9, align 4
  call void @llvm.lifetime.end.p0(i64 8, ptr %12) #8
  call void @llvm.lifetime.end.p0(i64 4, ptr %11) #8
  ret i32 %73
}