; Function Attrs: null_pointer_is_valid sspstrong uwtable
define internal fastcc i32 @dissect_reply_afp_spotlight(ptr noundef %0, ptr noundef %1, ptr noundef %2, i32 %.32.val) unnamed_addr #1 {
  %4 = alloca i32, align 4
  call void @llvm.lifetime.start.p0(i64 4, ptr nonnull %4) #8
  switch i32 %.32.val, label %28 [
    i32 4, label %5
    i32 2, label %18
    i32 3, label %21
  ]

5:                                                ; preds = %3
  %6 = load i32, ptr @hf_afp_vol_id, align 4
  %7 = tail call ptr @proto_tree_add_item(ptr noundef %2, i32 noundef %6, ptr noundef %0, i32 noundef 0, i32 noundef 4, i32 noundef 0)
  %8 = load i32, ptr @hf_afp_spotlight_reply_reserved, align 4
  %9 = tail call ptr @proto_tree_add_item(ptr noundef %2, i32 noundef %8, ptr noundef %0, i32 noundef 4, i32 noundef 4, i32 noundef 0)
  %10 = getelementptr inbounds nuw i8, ptr %1, i64 408
  %11 = load ptr, ptr %10, align 8
  %12 = call ptr @tvb_get_stringz_enc(ptr noundef %11, ptr noundef %0, i32 noundef 8, ptr noundef nonnull %4, i32 noundef 2)
  %13 = load i32, ptr @hf_afp_spotlight_volpath_server, align 4
  %14 = load i32, ptr %4, align 4
  %15 = call ptr @proto_tree_add_item(ptr noundef %2, i32 noundef %13, ptr noundef %0, i32 noundef 8, i32 noundef %14, i32 noundef 2)
  %16 = load i32, ptr %4, align 4
  %17 = add i32 %16, 8
  br label %28

18:                                               ; preds = %3
  %19 = load i32, ptr @hf_afp_spotlight_volflags, align 4
  %20 = tail call ptr @proto_tree_add_item(ptr noundef %2, i32 noundef %19, ptr noundef %0, i32 noundef 0, i32 noundef 4, i32 noundef 0)
  br label %28

21:                                               ; preds = %3
  %22 = load i32, ptr @hf_afp_spotlight_returncode, align 4
  %23 = tail call ptr @proto_tree_add_item(ptr noundef %2, i32 noundef %22, ptr noundef %0, i32 noundef 0, i32 noundef 4, i32 noundef 0)
  %24 = tail call ptr @tvb_new_subset_remaining(ptr noundef %0, i32 noundef 4)
  %25 = load ptr, ptr @spotlight_handle, align 8
  %26 = tail call i32 @call_dissector(ptr noundef %25, ptr noundef %24, ptr noundef %1, ptr noundef %2)
  %27 = add i32 %26, 4
  br label %28

28:                                               ; preds = %21, %18, %5, %3
  %.0 = phi i32 [ 0, %3 ], [ %27, %21 ], [ 4, %18 ], [ %17, %5 ]
  call void @llvm.lifetime.end.p0(i64 4, ptr nonnull %4) #8
  ret i32 %.0
}